; Function Attrs: mustprogress uwtable
define hidden void @_ZN19OpenColorIO_v2_5dev10OpRcPtrVecC2ERKS0_(ptr noundef nonnull align 8 dereferenceable(144) initializes((0, 24)) %0, ptr noundef nonnull align 8 dereferenceable(144) %1) unnamed_addr #6 align 2 personality ptr @__gxx_personality_v0 {
  tail call void @llvm.memset.p0.i64(ptr noundef nonnull align 8 dereferenceable(144) %0, i8 0, i64 24, i1 false)
  %3 = getelementptr inbounds nuw i8, ptr %0, i64 24
  invoke void @_ZN19OpenColorIO_v2_5dev18FormatMetadataImplC1Ev(ptr noundef nonnull align 8 dereferenceable(120) %3)
          to label %_ZN19OpenColorIO_v2_5dev10OpRcPtrVecC2Ev.exit unwind label %4

common.resume:                                    ; preds = %10, %4
  %common.resume.op = phi { ptr, i32 } [ %5, %4 ], [ %11, %10 ]
  resume { ptr, i32 } %common.resume.op

4:                                                ; preds = %2
  %5 = landingpad { ptr, i32 }
          cleanup
  tail call void @_ZNSt6vectorISt10shared_ptrIN19OpenColorIO_v2_5dev2OpEESaIS3_EED2Ev(ptr noundef nonnull align 8 dereferenceable(144) %0) #26
  br label %common.resume

_ZN19OpenColorIO_v2_5dev10OpRcPtrVecC2Ev.exit:    ; preds = %2
  %.not.i = icmp eq ptr %0, %1
  br i1 %.not.i, label %_ZN19OpenColorIO_v2_5dev10OpRcPtrVecaSERKS0_.exit, label %6

6:                                                ; preds = %_ZN19OpenColorIO_v2_5dev10OpRcPtrVecC2Ev.exit
  %7 = invoke noundef nonnull align 8 dereferenceable(24) ptr @_ZNSt6vectorISt10shared_ptrIN19OpenColorIO_v2_5dev2OpEESaIS3_EEaSERKS5_(ptr noundef nonnull align 8 dereferenceable(144) %0, ptr noundef nonnull align 8 dereferenceable(144) %1)
          to label %.noexc unwind label %10

.noexc:                                           ; preds = %6
  %8 = getelementptr inbounds nuw i8, ptr %1, i64 24
  %9 = invoke noundef nonnull align 8 dereferenceable(120) ptr @_ZN19OpenColorIO_v2_5dev18FormatMetadataImplaSERKS0_(ptr noundef nonnull align 8 dereferenceable(120) %3, ptr noundef nonnull align 8 dereferenceable(120) %8)
          to label %_ZN19OpenColorIO_v2_5dev10OpRcPtrVecaSERKS0_.exit unwind label %10

_ZN19OpenColorIO_v2_5dev10OpRcPtrVecaSERKS0_.exit: ; preds = %_ZN19OpenColorIO_v2_5dev10OpRcPtrVecC2Ev.exit, %.noexc
  ret void

10:                                               ; preds = %.noexc, %6
  %11 = landingpad { ptr, i32 }
          cleanup
  tail call void @_ZN19OpenColorIO_v2_5dev10OpRcPtrVecD2Ev(ptr noundef nonnull align 8 dereferenceable(144) %0) #26
  br label %common.resume
}